ccopy_reg
_reconstructor
p0
(csknn.mlp
Classifier
p1
c__builtin__
object
p2
Ntp3
Rp4
(dp5
S'loss_type'
p6
NsS'dropout_rate'
p7
NsS'verbose'
p8
NsS'valid_set'
p9
NsS'regularize'
p10
NsS'learning_rate'
p11
F0.5
sS'batch_size'
p12
I1
sS'valid_size'
p13
F0.0
sS'debug'
p14
I00
sS'learning_momentum'
p15
F0.9
sS'learning_rule'
p16
Vsgd
p17
sS'unit_counts'
p18
(lp19
I2
aI2
aI2
asS'weight_decay'
p20
NsS'layers'
p21
(lp22
g0
(csknn.nn
Layer
p23
g2
Ntp24
Rp25
(dp26
S'name'
p27
Vhidden0
p28
sS'frozen'
p29
I00
sS'dropout'
p30
NsS'pieces'
p31
NsS'units'
p32
I2
sg20
NsS'type'
p33
S'Sigmoid'
p34
sbag0
(g23
g2
Ntp35
Rp36
(dp37
g27
Voutput
p38
sg29
I00
sg30
Nsg31
Nsg32
I2
sg20
Nsg33
S'Softmax'
p39
sbasS'n_iter'
p40
I5
sS'f_stable'
p41
F0.001
sS'n_stable'
p42
I10
sS'callback'
p43
NsS'random_state'
p44
NsS'weights'
p45
(lp46
(cnumpy.core.multiarray
_reconstruct
p47
(cnumpy
ndarray
p48
(I0
tp49
S'b'
p50
tp51
Rp52
(I1
(I2
I2
tp53
cnumpy
dtype
p54
(S'f8'
p55
I0
I1
tp56
Rp57
(I3
S'<'
p58
NNNI-1
I-1
I0
tp59
bI00
S'\xbf\x03!\xb0\xf7\xbc\n@v\x00\x08\xccex\xe5?\xa8\x13\xe9J\x13\x91\x16@\xc2h2\x9c\x83\x9f\xf9?'
p60
tp61
bg47
(g48
(I0
tp62
g50
tp63
Rp64
(I1
(I2
tp65
g57
I00
S'1\x0c\xfc\xa6eZ\x0e\xc0\xeb\xfdxT\x81\x87\xf3\xbf'
p66
tp67
btp68
a(g47
(g48
(I0
tp69
g50
tp70
Rp71
(I1
(I2
I2
tp72
g57
I00
S'\xdaV\x83\x8dK\xe4\x13\xc0$\xa0\xa0\xe5\xa0\x90\x14@J\xf5\xc6}\x1c\xff\xfa\xbfX\xdf\x0cr\x936\x91?'
p73
tp74
bg47
(g48
(I0
tp75
g50
tp76
Rp77
(I1
(I2
tp78
g57
I00
S'H\xef\xc8J\xa5\xae\x05@S\xef\xc8J\xa5\xae\x05\xc0'
p79
tp80
btp81
asS'label_binarizers'
p82
(lp83
g0
(csklearn.preprocessing.label
LabelBinarizer
p84
g2
Ntp85
Rp86
(dp87
S'neg_label'
p88
I0
sS'sparse_input_'
p89
I00
sS'sparse_output'
p90
I00
sS'classes_'
p91
g47
(g48
(I0
tp92
g50
tp93
Rp94
(I1
(I2
tp95
g54
(S'i4'
p96
I0
I1
tp97
Rp98
(I3
S'<'
p99
NNNI-1
I-1
I0
tp100
bI00
S'\x00\x00\x00\x00\x01\x00\x00\x00'
p101
tp102
bsS'y_type_'
p103
Vmulticlass
p104
sS'pos_label'
p105
I1
sbasb.